target datalayout = "e-m:e-p270:32:32-p271:32:32-p272:64:64-i64:64-i128:128-f80:128-n8:16:32:64-S128"
target triple = "x86_64-pc-linux-gnu"

%struct.AVBPrint = type { ptr, i32, i32, i32, [1 x i8], [1000 x i8] }

; Function Attrs: inlinehint nounwind uwtable
define internal i32 @av_bprint_is_complete(ptr noundef %0) #8 {
  %2 = alloca ptr, align 8
  store ptr %0, ptr %2, align 8, !tbaa !4
  %3 = load ptr, ptr %2, align 8, !tbaa !4
  %4 = getelementptr inbounds nuw %struct.AVBPrint, ptr %3, i32 0, i32 1
  %5 = load i32, ptr %4, align 8, !tbaa !14
  %6 = load ptr, ptr %2, align 8, !tbaa !4
  %7 = getelementptr inbounds nuw %struct.AVBPrint, ptr %6, i32 0, i32 2
  %8 = load i32, ptr %7, align 4, !tbaa !15
  %9 = icmp ult i32 %5, %8
  %10 = zext i1 %9 to i32
  ret i32 %10
}

; Function Attrs: nounwind uwtable
define internal void @av_bprint_grow(ptr noundef %0, i32 noundef %1) #0 {
  %3 = alloca ptr, align 8
  %4 = alloca i32, align 4
  store ptr %0, ptr %3, align 8, !tbaa !4
  store i32 %1, ptr %4, align 4, !tbaa !9
  %5 = load i32, ptr %4, align 4, !tbaa !9
  %6 = load ptr, ptr %3, align 8, !tbaa !4
  %7 = getelementptr inbounds nuw %struct.AVBPrint, ptr %6, i32 0, i32 1
  %8 = load i32, ptr %7, align 8, !tbaa !14
  %9 = sub i32 -6, %8
  %10 = icmp ugt i32 %5, %9
  br i1 %10, label %11, label %16

11:                                               ; preds = %2
  %12 = load ptr, ptr %3, align 8, !tbaa !4
  %13 = getelementptr inbounds nuw %struct.AVBPrint, ptr %12, i32 0, i32 1
  %14 = load i32, ptr %13, align 8, !tbaa !14
  %15 = sub i32 -6, %14
  br label %18

16:                                               ; preds = %2
  %17 = load i32, ptr %4, align 4, !tbaa !9
  br label %18

18:                                               ; preds = %16, %11
  %19 = phi i32 [ %15, %11 ], [ %17, %16 ]
  store i32 %19, ptr %4, align 4, !tbaa !9
  %20 = load i32, ptr %4, align 4, !tbaa !9
  %21 = load ptr, ptr %3, align 8, !tbaa !4
  %22 = getelementptr inbounds nuw %struct.AVBPrint, ptr %21, i32 0, i32 1
  %23 = load i32, ptr %22, align 8, !tbaa !14
  %24 = add i32 %23, %20
  store i32 %24, ptr %22, align 8, !tbaa !14
  %25 = load ptr, ptr %3, align 8, !tbaa !4
  %26 = getelementptr inbounds nuw %struct.AVBPrint, ptr %25, i32 0, i32 2
  %27 = load i32, ptr %26, align 4, !tbaa !15
  %28 = icmp ne i32 %27, 0
  br i1 %28, label %29, label %54

29:                                               ; preds = %18
  %30 = load ptr, ptr %3, align 8, !tbaa !4
  %31 = getelementptr inbounds nuw %struct.AVBPrint, ptr %30, i32 0, i32 0
  %32 = load ptr, ptr %31, align 8, !tbaa !11
  %33 = load ptr, ptr %3, align 8, !tbaa !4
  %34 = getelementptr inbounds nuw %struct.AVBPrint, ptr %33, i32 0, i32 1
  %35 = load i32, ptr %34, align 8, !tbaa !14
  %36 = load ptr, ptr %3, align 8, !tbaa !4
  %37 = getelementptr inbounds nuw %struct.AVBPrint, ptr %36, i32 0, i32 2
  %38 = load i32, ptr %37, align 4, !tbaa !15
  %39 = sub i32 %38, 1
  %40 = icmp ugt i32 %35, %39
  br i1 %40, label %41, label %46

41:                                               ; preds = %29
  %42 = load ptr, ptr %3, align 8, !tbaa !4
  %43 = getelementptr inbounds nuw %struct.AVBPrint, ptr %42, i32 0, i32 2
  %44 = load i32, ptr %43, align 4, !tbaa !15
  %45 = sub i32 %44, 1
  br label %50

46:                                               ; preds = %29
  %47 = load ptr, ptr %3, align 8, !tbaa !4
  %48 = getelementptr inbounds nuw %struct.AVBPrint, ptr %47, i32 0, i32 1
  %49 = load i32, ptr %48, align 8, !tbaa !14
  br label %50

50:                                               ; preds = %46, %41
  %51 = phi i32 [ %45, %41 ], [ %49, %46 ]
  %52 = zext i32 %51 to i64
  %53 = getelementptr inbounds nuw i8, ptr %32, i64 %52
  store i8 0, ptr %53, align 1, !tbaa !17
  br label %54

54:                                               ; preds = %50, %18
  ret void
}

; Function Attrs: nounwind uwtable
define internal i32 @av_bprint_alloc(ptr noundef %0, i32 noundef %1) #0 {
  %3 = alloca i32, align 4
  %4 = alloca ptr, align 8
  %5 = alloca i32, align 4
  %6 = alloca ptr, align 8
  %7 = alloca ptr, align 8
  %8 = alloca i32, align 4
  %9 = alloca i32, align 4
  %10 = alloca i32, align 4
  store ptr %0, ptr %4, align 8, !tbaa !4
  store i32 %1, ptr %5, align 4, !tbaa !9
  call void @llvm.lifetime.start.p0(i64 8, ptr %6) #9
  call void @llvm.lifetime.start.p0(i64 8, ptr %7) #9
  call void @llvm.lifetime.start.p0(i64 4, ptr %8) #9
  call void @llvm.lifetime.start.p0(i64 4, ptr %9) #9
  %11 = load ptr, ptr %4, align 8, !tbaa !4
  %12 = getelementptr inbounds nuw %struct.AVBPrint, ptr %11, i32 0, i32 2
  %13 = load i32, ptr %12, align 4, !tbaa !15
  %14 = load ptr, ptr %4, align 8, !tbaa !4
  %15 = getelementptr inbounds nuw %struct.AVBPrint, ptr %14, i32 0, i32 3
  %16 = load i32, ptr %15, align 8, !tbaa !16
  %17 = icmp eq i32 %13, %16
  br i1 %17, label %18, label %19

18:                                               ; preds = %2
  store i32 -5, ptr %3, align 4
  store i32 1, ptr %10, align 4
  br label %125

19:                                               ; preds = %2
  %20 = load ptr, ptr %4, align 8, !tbaa !4
  %21 = call i32 @av_bprint_is_complete(ptr noundef %20)
  %22 = icmp ne i32 %21, 0
  br i1 %22, label %24, label %23

23:                                               ; preds = %19
  store i32 -1094995529, ptr %3, align 4
  store i32 1, ptr %10, align 4
  br label %125

24:                                               ; preds = %19
  %25 = load ptr, ptr %4, align 8, !tbaa !4
  %26 = getelementptr inbounds nuw %struct.AVBPrint, ptr %25, i32 0, i32 1
  %27 = load i32, ptr %26, align 8, !tbaa !14
  %28 = add i32 %27, 1
  %29 = load ptr, ptr %4, align 8, !tbaa !4
  %30 = getelementptr inbounds nuw %struct.AVBPrint, ptr %29, i32 0, i32 1
  %31 = load i32, ptr %30, align 8, !tbaa !14
  %32 = sub i32 -1, %31
  %33 = sub i32 %32, 1
  %34 = load i32, ptr %5, align 4, !tbaa !9
  %35 = icmp ugt i32 %33, %34
  br i1 %35, label %36, label %38

36:                                               ; preds = %24
  %37 = load i32, ptr %5, align 4, !tbaa !9
  br label %44

38:                                               ; preds = %24
  %39 = load ptr, ptr %4, align 8, !tbaa !4
  %40 = getelementptr inbounds nuw %struct.AVBPrint, ptr %39, i32 0, i32 1
  %41 = load i32, ptr %40, align 8, !tbaa !14
  %42 = sub i32 -1, %41
  %43 = sub i32 %42, 1
  br label %44

44:                                               ; preds = %38, %36
  %45 = phi i32 [ %37, %36 ], [ %43, %38 ]
  %46 = add i32 %28, %45
  store i32 %46, ptr %8, align 4, !tbaa !9
  %47 = load ptr, ptr %4, align 8, !tbaa !4
  %48 = getelementptr inbounds nuw %struct.AVBPrint, ptr %47, i32 0, i32 2
  %49 = load i32, ptr %48, align 4, !tbaa !15
  %50 = load ptr, ptr %4, align 8, !tbaa !4
  %51 = getelementptr inbounds nuw %struct.AVBPrint, ptr %50, i32 0, i32 3
  %52 = load i32, ptr %51, align 8, !tbaa !16
  %53 = udiv i32 %52, 2
  %54 = icmp ugt i32 %49, %53
  br i1 %54, label %55, label %59

55:                                               ; preds = %44
  %56 = load ptr, ptr %4, align 8, !tbaa !4
  %57 = getelementptr inbounds nuw %struct.AVBPrint, ptr %56, i32 0, i32 3
  %58 = load i32, ptr %57, align 8, !tbaa !16
  br label %64

59:                                               ; preds = %44
  %60 = load ptr, ptr %4, align 8, !tbaa !4
  %61 = getelementptr inbounds nuw %struct.AVBPrint, ptr %60, i32 0, i32 2
  %62 = load i32, ptr %61, align 4, !tbaa !15
  %63 = mul i32 %62, 2
  br label %64

64:                                               ; preds = %59, %55
  %65 = phi i32 [ %58, %55 ], [ %63, %59 ]
  store i32 %65, ptr %9, align 4, !tbaa !9
  %66 = load i32, ptr %9, align 4, !tbaa !9
  %67 = load i32, ptr %8, align 4, !tbaa !9
  %68 = icmp ult i32 %66, %67
  br i1 %68, label %69, label %83

69:                                               ; preds = %64
  %70 = load ptr, ptr %4, align 8, !tbaa !4
  %71 = getelementptr inbounds nuw %struct.AVBPrint, ptr %70, i32 0, i32 3
  %72 = load i32, ptr %71, align 8, !tbaa !16
  %73 = load i32, ptr %8, align 4, !tbaa !9
  %74 = icmp ugt i32 %72, %73
  br i1 %74, label %75, label %77

75:                                               ; preds = %69
  %76 = load i32, ptr %8, align 4, !tbaa !9
  br label %81

77:                                               ; preds = %69
  %78 = load ptr, ptr %4, align 8, !tbaa !4
  %79 = getelementptr inbounds nuw %struct.AVBPrint, ptr %78, i32 0, i32 3
  %80 = load i32, ptr %79, align 8, !tbaa !16
  br label %81

81:                                               ; preds = %77, %75
  %82 = phi i32 [ %76, %75 ], [ %80, %77 ]
  store i32 %82, ptr %9, align 4, !tbaa !9
  br label %83

83:                                               ; preds = %81, %64
  %84 = load ptr, ptr %4, align 8, !tbaa !4
  %85 = getelementptr inbounds nuw %struct.AVBPrint, ptr %84, i32 0, i32 0
  %86 = load ptr, ptr %85, align 8, !tbaa !11
  %87 = load ptr, ptr %4, align 8, !tbaa !4
  %88 = getelementptr inbounds nuw %struct.AVBPrint, ptr %87, i32 0, i32 4
  %89 = getelementptr inbounds [1 x i8], ptr %88, i64 0, i64 0
  %90 = icmp ne ptr %86, %89
  br i1 %90, label %91, label %95

91:                                               ; preds = %83
  %92 = load ptr, ptr %4, align 8, !tbaa !4
  %93 = getelementptr inbounds nuw %struct.AVBPrint, ptr %92, i32 0, i32 0
  %94 = load ptr, ptr %93, align 8, !tbaa !11
  br label %96

95:                                               ; preds = %83
  br label %96

96:                                               ; preds = %95, %91
  %97 = phi ptr [ %94, %91 ], [ null, %95 ]
  store ptr %97, ptr %6, align 8, !tbaa !18
  %98 = load ptr, ptr %6, align 8, !tbaa !18
  %99 = load i32, ptr %9, align 4, !tbaa !9
  %100 = zext i32 %99 to i64
  %101 = call ptr @av_realloc(ptr noundef %98, i64 noundef %100)
  store ptr %101, ptr %7, align 8, !tbaa !18
  %102 = load ptr, ptr %7, align 8, !tbaa !18
  %103 = icmp ne ptr %102, null
  br i1 %103, label %105, label %104

104:                                              ; preds = %96
  store i32 -12, ptr %3, align 4
  store i32 1, ptr %10, align 4
  br label %125

105:                                              ; preds = %96
  %106 = load ptr, ptr %6, align 8, !tbaa !18
  %107 = icmp ne ptr %106, null
  br i1 %107, label %118, label %108

108:                                              ; preds = %105
  %109 = load ptr, ptr %7, align 8, !tbaa !18
  %110 = load ptr, ptr %4, align 8, !tbaa !4
  %111 = getelementptr inbounds nuw %struct.AVBPrint, ptr %110, i32 0, i32 0
  %112 = load ptr, ptr %111, align 8, !tbaa !11
  %113 = load ptr, ptr %4, align 8, !tbaa !4
  %114 = getelementptr inbounds nuw %struct.AVBPrint, ptr %113, i32 0, i32 1
  %115 = load i32, ptr %114, align 8, !tbaa !14
  %116 = add i32 %115, 1
  %117 = zext i32 %116 to i64
  call void @llvm.memcpy.p0.p0.i64(ptr align 1 %109, ptr align 1 %112, i64 %117, i1 false)
  br label %118

118:                                              ; preds = %108, %105
  %119 = load ptr, ptr %7, align 8, !tbaa !18
  %120 = load ptr, ptr %4, align 8, !tbaa !4
  %121 = getelementptr inbounds nuw %struct.AVBPrint, ptr %120, i32 0, i32 0
  store ptr %119, ptr %121, align 8, !tbaa !11
  %122 = load i32, ptr %9, align 4, !tbaa !9
  %123 = load ptr, ptr %4, align 8, !tbaa !4
  %124 = getelementptr inbounds nuw %struct.AVBPrint, ptr %123, i32 0, i32 2
  store i32 %122, ptr %124, align 4, !tbaa !15
  store i32 0, ptr %3, align 4
  store i32 1, ptr %10, align 4
  br label %125

125:                                              ; preds = %118, %104, %23, %18
  call void @llvm.lifetime.end.p0(i64 4, ptr %9) #9
  call void @llvm.lifetime.end.p0(i64 4, ptr %8) #9
  call void @llvm.lifetime.end.p0(i64 8, ptr %7) #9
  call void @llvm.lifetime.end.p0(i64 8, ptr %6) #9
  %126 = load i32, ptr %3, align 4
  ret i32 %126
}

; Function Attrs: nounwind uwtable
define void @av_bprint_chars(ptr noundef %0, i8 noundef signext %1, i32 noundef %2) #0 {
  %4 = alloca ptr, align 8
  %5 = alloca i8, align 1
  %6 = alloca i32, align 4
  %7 = alloca i32, align 4
  %8 = alloca i32, align 4
  store ptr %0, ptr %4, align 8, !tbaa !4
  store i8 %1, ptr %5, align 1, !tbaa !17
  store i32 %2, ptr %6, align 4, !tbaa !9
  call void @llvm.lifetime.start.p0(i64 4, ptr %7) #9
  call void @llvm.lifetime.start.p0(i64 4, ptr %8) #9
  br label %9

9:                                                ; preds = %42, %3
  br label %10

10:                                               ; preds = %9
  %11 = load ptr, ptr %4, align 8, !tbaa !4
  %12 = getelementptr inbounds nuw %struct.AVBPrint, ptr %11, i32 0, i32 2
  %13 = load i32, ptr %12, align 4, !tbaa !15
  %14 = load ptr, ptr %4, align 8, !tbaa !4
  %15 = getelementptr inbounds nuw %struct.AVBPrint, ptr %14, i32 0, i32 1
  %16 = load i32, ptr %15, align 8, !tbaa !14
  %17 = load ptr, ptr %4, align 8, !tbaa !4
  %18 = getelementptr inbounds nuw %struct.AVBPrint, ptr %17, i32 0, i32 2
  %19 = load i32, ptr %18, align 4, !tbaa !15
  %20 = icmp ugt i32 %16, %19
  br i1 %20, label %21, label %25

21:                                               ; preds = %10
  %22 = load ptr, ptr %4, align 8, !tbaa !4
  %23 = getelementptr inbounds nuw %struct.AVBPrint, ptr %22, i32 0, i32 2
  %24 = load i32, ptr %23, align 4, !tbaa !15
  br label %29

25:                                               ; preds = %10
  %26 = load ptr, ptr %4, align 8, !tbaa !4
  %27 = getelementptr inbounds nuw %struct.AVBPrint, ptr %26, i32 0, i32 1
  %28 = load i32, ptr %27, align 8, !tbaa !14
  br label %29

29:                                               ; preds = %25, %21
  %30 = phi i32 [ %24, %21 ], [ %28, %25 ]
  %31 = sub i32 %13, %30
  store i32 %31, ptr %7, align 4, !tbaa !9
  %32 = load i32, ptr %6, align 4, !tbaa !9
  %33 = load i32, ptr %7, align 4, !tbaa !9
  %34 = icmp ult i32 %32, %33
  br i1 %34, label %35, label %36

35:                                               ; preds = %29
  br label %43

36:                                               ; preds = %29
  %37 = load ptr, ptr %4, align 8, !tbaa !4
  %38 = load i32, ptr %6, align 4, !tbaa !9
  %39 = call i32 @av_bprint_alloc(ptr noundef %37, i32 noundef %38)
  %40 = icmp ne i32 %39, 0
  br i1 %40, label %41, label %42

41:                                               ; preds = %36
  br label %43

42:                                               ; preds = %36
  br label %9

43:                                               ; preds = %41, %35
  %44 = load i32, ptr %7, align 4, !tbaa !9
  %45 = icmp ne i32 %44, 0
  br i1 %45, label %46, label %71

46:                                               ; preds = %43
  %47 = load i32, ptr %6, align 4, !tbaa !9
  %48 = load i32, ptr %7, align 4, !tbaa !9
  %49 = sub i32 %48, 1
  %50 = icmp ugt i32 %47, %49
  br i1 %50, label %51, label %54

51:                                               ; preds = %46
  %52 = load i32, ptr %7, align 4, !tbaa !9
  %53 = sub i32 %52, 1
  br label %56

54:                                               ; preds = %46
  %55 = load i32, ptr %6, align 4, !tbaa !9
  br label %56

56:                                               ; preds = %54, %51
  %57 = phi i32 [ %53, %51 ], [ %55, %54 ]
  store i32 %57, ptr %8, align 4, !tbaa !9
  %58 = load ptr, ptr %4, align 8, !tbaa !4
  %59 = getelementptr inbounds nuw %struct.AVBPrint, ptr %58, i32 0, i32 0
  %60 = load ptr, ptr %59, align 8, !tbaa !11
  %61 = load ptr, ptr %4, align 8, !tbaa !4
  %62 = getelementptr inbounds nuw %struct.AVBPrint, ptr %61, i32 0, i32 1
  %63 = load i32, ptr %62, align 8, !tbaa !14
  %64 = zext i32 %63 to i64
  %65 = getelementptr inbounds nuw i8, ptr %60, i64 %64
  %66 = load i8, ptr %5, align 1, !tbaa !17
  %67 = sext i8 %66 to i32
  %68 = trunc i32 %67 to i8
  %69 = load i32, ptr %8, align 4, !tbaa !9
  %70 = zext i32 %69 to i64
  call void @llvm.memset.p0.i64(ptr align 1 %65, i8 %68, i64 %70, i1 false)
  br label %71

71:                                               ; preds = %56, %43
  %72 = load ptr, ptr %4, align 8, !tbaa !4
  %73 = load i32, ptr %6, align 4, !tbaa !9
  call void @av_bprint_grow(ptr noundef %72, i32 noundef %73)
  call void @llvm.lifetime.end.p0(i64 4, ptr %8) #9
  call void @llvm.lifetime.end.p0(i64 4, ptr %7) #9
  ret void
}